target datalayout = "e-m:e-p270:32:32-p271:32:32-p272:64:64-i64:64-i128:128-f80:128-n8:16:32:64-S128"
target triple = "x86_64-pc-linux-gnu"

%struct._object = type { %union.anon, ptr }
%union.anon = type { i64 }
%struct._err_stackitem = type { ptr, ptr }
%union._PyStackRef = type { i64 }
%struct._PyInterpreterFrame = type { %union._PyStackRef, ptr, %union._PyStackRef, ptr, ptr, ptr, ptr, ptr, ptr, i16, i8, i8, [1 x %union._PyStackRef] }
%struct._PyAsyncGenObject = type { %struct._object, ptr, ptr, ptr, %struct._err_stackitem, ptr, i8, i8, i8, i8, %struct._PyInterpreterFrame }
%struct.PyAsyncGenASend = type { %struct._object, ptr, ptr, i32 }

@_Py_NoneStruct = external global %struct._object, align 8
@PyExc_RuntimeError = external global ptr, align 8
@.str.77 = private unnamed_addr constant [49 x i8] c"cannot reuse already awaited __anext__()/asend()\00", align 1
@.str.78 = private unnamed_addr constant [51 x i8] c"anext(): asynchronous generator is already running\00", align 1

; Function Attrs: nounwind uwtable
define internal ptr @gen_send(ptr noundef %0, ptr noundef %1) #0 {
  %3 = alloca ptr, align 8
  %4 = alloca ptr, align 8
  store ptr %0, ptr %3, align 8, !tbaa !11
  store ptr %1, ptr %4, align 8, !tbaa !11
  %5 = load ptr, ptr %3, align 8, !tbaa !11
  %6 = load ptr, ptr %4, align 8, !tbaa !11
  %7 = call ptr @gen_send_ex(ptr noundef %5, ptr noundef %6, i32 noundef 0, i32 noundef 0)
  ret ptr %7
}

; Function Attrs: nounwind uwtable
define internal ptr @async_gen_asend_send(ptr noundef %0, ptr noundef %1) #0 {
  %3 = alloca ptr, align 8
  %4 = alloca ptr, align 8
  %5 = alloca ptr, align 8
  %6 = alloca ptr, align 8
  %7 = alloca i32, align 4
  %8 = alloca ptr, align 8
  store ptr %0, ptr %4, align 8, !tbaa !11
  store ptr %1, ptr %5, align 8, !tbaa !11
  call void @llvm.lifetime.start.p0(i64 8, ptr %6) #7
  %9 = load ptr, ptr %4, align 8, !tbaa !11
  store ptr %9, ptr %6, align 8, !tbaa !101
  %10 = load ptr, ptr %6, align 8, !tbaa !101
  %11 = getelementptr inbounds nuw %struct.PyAsyncGenASend, ptr %10, i32 0, i32 3
  %12 = load i32, ptr %11, align 8, !tbaa !108
  %13 = icmp eq i32 %12, 2
  br i1 %13, label %14, label %16

14:                                               ; preds = %2
  %15 = load ptr, ptr @PyExc_RuntimeError, align 8, !tbaa !11
  call void @PyErr_SetString(ptr noundef %15, ptr noundef @.str.77)
  store ptr null, ptr %3, align 8
  store i32 1, ptr %7, align 4
  br label %67

16:                                               ; preds = %2
  %17 = load ptr, ptr %6, align 8, !tbaa !101
  %18 = getelementptr inbounds nuw %struct.PyAsyncGenASend, ptr %17, i32 0, i32 3
  %19 = load i32, ptr %18, align 8, !tbaa !108
  %20 = icmp eq i32 %19, 0
  br i1 %20, label %21, label %45

21:                                               ; preds = %16
  %22 = load ptr, ptr %6, align 8, !tbaa !101
  %23 = getelementptr inbounds nuw %struct.PyAsyncGenASend, ptr %22, i32 0, i32 1
  %24 = load ptr, ptr %23, align 8, !tbaa !105
  %25 = getelementptr inbounds nuw %struct._PyAsyncGenObject, ptr %24, i32 0, i32 8
  %26 = load i8, ptr %25, align 2, !tbaa !56
  %27 = icmp ne i8 %26, 0
  br i1 %27, label %28, label %32

28:                                               ; preds = %21
  %29 = load ptr, ptr %6, align 8, !tbaa !101
  %30 = getelementptr inbounds nuw %struct.PyAsyncGenASend, ptr %29, i32 0, i32 3
  store i32 2, ptr %30, align 8, !tbaa !108
  %31 = load ptr, ptr @PyExc_RuntimeError, align 8, !tbaa !11
  call void @PyErr_SetString(ptr noundef %31, ptr noundef @.str.78)
  store ptr null, ptr %3, align 8
  store i32 1, ptr %7, align 4
  br label %67

32:                                               ; preds = %21
  %33 = load ptr, ptr %5, align 8, !tbaa !11
  %34 = icmp eq ptr %33, null
  br i1 %34, label %38, label %35

35:                                               ; preds = %32
  %36 = load ptr, ptr %5, align 8, !tbaa !11
  %37 = icmp eq ptr %36, @_Py_NoneStruct
  br i1 %37, label %38, label %42

38:                                               ; preds = %35, %32
  %39 = load ptr, ptr %6, align 8, !tbaa !101
  %40 = getelementptr inbounds nuw %struct.PyAsyncGenASend, ptr %39, i32 0, i32 2
  %41 = load ptr, ptr %40, align 8, !tbaa !107
  store ptr %41, ptr %5, align 8, !tbaa !11
  br label %42

42:                                               ; preds = %38, %35
  %43 = load ptr, ptr %6, align 8, !tbaa !101
  %44 = getelementptr inbounds nuw %struct.PyAsyncGenASend, ptr %43, i32 0, i32 3
  store i32 1, ptr %44, align 8, !tbaa !108
  br label %45

45:                                               ; preds = %42, %16
  %46 = load ptr, ptr %6, align 8, !tbaa !101
  %47 = getelementptr inbounds nuw %struct.PyAsyncGenASend, ptr %46, i32 0, i32 1
  %48 = load ptr, ptr %47, align 8, !tbaa !105
  %49 = getelementptr inbounds nuw %struct._PyAsyncGenObject, ptr %48, i32 0, i32 8
  store i8 1, ptr %49, align 2, !tbaa !56
  call void @llvm.lifetime.start.p0(i64 8, ptr %8) #7
  %50 = load ptr, ptr %6, align 8, !tbaa !101
  %51 = getelementptr inbounds nuw %struct.PyAsyncGenASend, ptr %50, i32 0, i32 1
  %52 = load ptr, ptr %51, align 8, !tbaa !105
  %53 = load ptr, ptr %5, align 8, !tbaa !11
  %54 = call ptr @gen_send(ptr noundef %52, ptr noundef %53)
  store ptr %54, ptr %8, align 8, !tbaa !11
  %55 = load ptr, ptr %6, align 8, !tbaa !101
  %56 = getelementptr inbounds nuw %struct.PyAsyncGenASend, ptr %55, i32 0, i32 1
  %57 = load ptr, ptr %56, align 8, !tbaa !105
  %58 = load ptr, ptr %8, align 8, !tbaa !11
  %59 = call ptr @async_gen_unwrap_value(ptr noundef %57, ptr noundef %58)
  store ptr %59, ptr %8, align 8, !tbaa !11
  %60 = load ptr, ptr %8, align 8, !tbaa !11
  %61 = icmp eq ptr %60, null
  br i1 %61, label %62, label %65

62:                                               ; preds = %45
  %63 = load ptr, ptr %6, align 8, !tbaa !101
  %64 = getelementptr inbounds nuw %struct.PyAsyncGenASend, ptr %63, i32 0, i32 3
  store i32 2, ptr %64, align 8, !tbaa !108
  br label %65

65:                                               ; preds = %62, %45
  %66 = load ptr, ptr %8, align 8, !tbaa !11
  store ptr %66, ptr %3, align 8
  store i32 1, ptr %7, align 4
  call void @llvm.lifetime.end.p0(i64 8, ptr %8) #7
  br label %67

67:                                               ; preds = %65, %28, %14
  call void @llvm.lifetime.end.p0(i64 8, ptr %6) #7
  %68 = load ptr, ptr %3, align 8
  ret ptr %68
}

; Function Attrs: nounwind uwtable
define internal ptr @async_gen_asend_iternext(ptr noundef %0) #0 {
  %2 = alloca ptr, align 8
  store ptr %0, ptr %2, align 8, !tbaa !11
  %3 = load ptr, ptr %2, align 8, !tbaa !11
  %4 = call ptr @async_gen_asend_send(ptr noundef %3, ptr noundef null)
  ret ptr %4
}