; Function Attrs: nounwind uwtable
define internal noundef ptr @async_gen_asend_iternext(ptr noundef captures(none) %0) #2 {
  %2 = getelementptr inbounds nuw i8, ptr %0, i64 32
  %3 = load i32, ptr %2, align 8, !tbaa !169
  switch i32 %3, label %._crit_edge.i [
    i32 2, label %4
    i32 0, label %6
  ]

._crit_edge.i:                                    ; preds = %1
  %.phi.trans.insert.i = getelementptr inbounds nuw i8, ptr %0, i64 16
  %.pre.i = load ptr, ptr %.phi.trans.insert.i, align 8, !tbaa !166
  br label %16

4:                                                ; preds = %1
  %5 = load ptr, ptr @PyExc_RuntimeError, align 8, !tbaa !32
  tail call void @PyErr_SetString(ptr noundef %5, ptr noundef nonnull @.str.77) #8
  br label %async_gen_asend_send.exit

6:                                                ; preds = %1
  %7 = getelementptr inbounds nuw i8, ptr %0, i64 16
  %8 = load ptr, ptr %7, align 8, !tbaa !166
  %9 = getelementptr inbounds nuw i8, ptr %8, i64 66
  %10 = load i8, ptr %9, align 2, !tbaa !170
  %.not.i = icmp eq i8 %10, 0
  br i1 %.not.i, label %13, label %11

11:                                               ; preds = %6
  store i32 2, ptr %2, align 8, !tbaa !169
  %12 = load ptr, ptr @PyExc_RuntimeError, align 8, !tbaa !32
  tail call void @PyErr_SetString(ptr noundef %12, ptr noundef nonnull @.str.78) #8
  br label %async_gen_asend_send.exit

13:                                               ; preds = %6
  %14 = getelementptr inbounds nuw i8, ptr %0, i64 24
  %15 = load ptr, ptr %14, align 8, !tbaa !168
  store i32 1, ptr %2, align 8, !tbaa !169
  br label %16

16:                                               ; preds = %13, %._crit_edge.i
  %17 = phi ptr [ %8, %13 ], [ %.pre.i, %._crit_edge.i ]
  %.019.i = phi ptr [ %15, %13 ], [ null, %._crit_edge.i ]
  %18 = getelementptr inbounds nuw i8, ptr %0, i64 16
  %19 = getelementptr inbounds nuw i8, ptr %17, i64 66
  store i8 1, ptr %19, align 2, !tbaa !170
  %20 = tail call fastcc ptr @gen_send_ex(ptr noundef %17, ptr noundef %.019.i, i32 noundef 0, i32 noundef 0)
  %21 = load ptr, ptr %18, align 8, !tbaa !166
  %22 = tail call fastcc ptr @async_gen_unwrap_value(ptr noundef %21, ptr noundef %20)
  %23 = icmp eq ptr %22, null
  br i1 %23, label %24, label %async_gen_asend_send.exit

24:                                               ; preds = %16
  store i32 2, ptr %2, align 8, !tbaa !169
  br label %async_gen_asend_send.exit

async_gen_asend_send.exit:                        ; preds = %4, %11, %16, %24
  %.0.i = phi ptr [ null, %4 ], [ null, %11 ], [ null, %24 ], [ %22, %16 ]
  ret ptr %.0.i
}